Certificate:
    Data:
        Version: 1 (0x0)
        Serial Number: 4097 (0x1001)
    Signature Algorithm: ecdsa-with-SHA384
        Issuer: C=FR, ST=Auvergne-Rhone-Alpes, O=IUT, OU=RT, CN=PKI&VPN_Client
        Validity
            Not Before: Jan 15 09:23:10 2018 GMT
            Not After : Jan 15 09:23:10 2019 GMT
        Subject: C=FR, ST=Auvergne-Rhone-Alpes, L=Annecy, O=IUT, OU=RT, CN=test2
        Subject Public Key Info:
            Public Key Algorithm: id-ecPublicKey
                Public-Key: (256 bit)
                pub:
                    04:08:a5:30:5d:d1:a0:8b:f0:00:96:bd:72:0d:ad:
                    a3:49:e9:d3:5b:f0:95:6e:5e:35:64:a9:a5:9f:9c:
                    0d:b4:d2:02:89:06:72:6f:be:84:91:7e:ab:86:18:
                    58:2c:b2:7b:38:a3:fc:06:17:2a:87:3e:74:4a:75:
                    d5:19:8a:46:10
                ASN1 OID: prime256v1
                NIST CURVE: P-256
    Signature Algorithm: ecdsa-with-SHA384
         30:65:02:31:00:a7:17:ea:41:54:30:06:a7:80:f2:e4:96:de:
         5a:12:a9:ad:09:e0:a9:74:88:04:e5:f2:41:39:41:25:f4:b7:
         9d:c9:73:aa:05:e3:94:9b:8d:a8:1b:c1:4d:ea:4c:e3:bc:02:
         30:6b:6d:62:2c:39:30:11:b9:84:7e:81:8b:b1:91:65:90:a9:
         aa:b9:d1:4e:8d:3e:b4:25:b3:29:4d:a7:a9:d6:21:d2:28:c6:
         91:01:5a:33:bd:45:34:30:ba:ce:fb:de:93
-----BEGIN CERTIFICATE-----
MIIB0TCCAVcCAhABMAoGCCqGSM49BAMDMGAxCzAJBgNVBAYTAkZSMR0wGwYDVQQI
DBRBdXZlcmduZS1SaG9uZS1BbHBlczEMMAoGA1UECgwDSVVUMQswCQYDVQQLDAJS
VDEXMBUGA1UEAwwOUEtJJlZQTl9DbGllbnQwHhcNMTgwMTE1MDkyMzEwWhcNMTkw
MTE1MDkyMzEwWjBoMQswCQYDVQQGEwJGUjEdMBsGA1UECAwUQXV2ZXJnbmUtUmhv
bmUtQWxwZXMxDzANBgNVBAcMBkFubmVjeTEMMAoGA1UECgwDSVVUMQswCQYDVQQL
DAJSVDEOMAwGA1UEAwwFdGVzdDIwWTATBgcqhkjOPQIBBggqhkjOPQMBBwNCAAQI
pTBd0aCL8ACWvXINraNJ6dNb8JVuXjVkqaWfnA200gKJBnJvvoSRfquGGFgssns4
o/wGFyqHPnRKddUZikYQMAoGCCqGSM49BAMDA2gAMGUCMQCnF+pBVDAGp4Dy5Jbe
WhKprQngqXSIBOXyQTlBJfS3nclzqgXjlJuNqBvBTepM47wCMGttYiw5MBG5hH6B
i7GRZZCpqrnRTo0+tCWzKU2nqdYh0ijGkQFaM71FNDC6zvvekw==
-----END CERTIFICATE-----
