Certificate:
    Data:
        Version: 1 (0x0)
        Serial Number: 4098 (0x1002)
    Signature Algorithm: ecdsa-with-SHA384
        Issuer: C=FR, ST=Auvergne-Rhone-Alpes, O=IUT, OU=RT, CN=PKI&VPN_Client
        Validity
            Not Before: Jan 15 09:27:19 2018 GMT
            Not After : Jan 15 09:27:19 2019 GMT
        Subject: C=FR, ST=Auvergne-Rhone-Alpes, L=Annecy, O=IUT, OU=RT, CN=test3
        Subject Public Key Info:
            Public Key Algorithm: id-ecPublicKey
                Public-Key: (256 bit)
                pub:
                    04:f3:12:b9:e6:a6:94:26:5e:0b:ca:ea:fe:23:1d:
                    71:82:09:f8:80:01:ab:78:03:36:04:05:e1:b1:9d:
                    2b:45:5a:dc:ad:d1:c4:21:cf:c4:e6:74:57:7f:5f:
                    1e:e3:ca:01:1f:8b:a3:15:a2:c8:84:20:27:3a:47:
                    37:5c:a4:09:20
                ASN1 OID: prime256v1
                NIST CURVE: P-256
    Signature Algorithm: ecdsa-with-SHA384
         30:65:02:31:00:be:13:6a:16:fe:04:f5:59:6d:0e:e3:d2:2d:
         9d:27:17:c8:d2:a9:ee:bd:fe:a8:68:0e:44:6e:02:f2:3c:22:
         19:1f:d1:28:4a:3d:0f:d5:9a:a6:46:61:99:e1:6d:ae:92:02:
         30:06:c3:38:7a:e6:83:7c:94:e5:af:d0:e1:b9:5e:3e:c0:66:
         83:e7:e2:0f:ea:3c:73:69:e3:2b:a1:37:b9:04:58:b2:86:78:
         17:87:78:47:2c:b7:80:cd:57:c5:ac:b0:e3
-----BEGIN CERTIFICATE-----
MIIB0TCCAVcCAhACMAoGCCqGSM49BAMDMGAxCzAJBgNVBAYTAkZSMR0wGwYDVQQI
DBRBdXZlcmduZS1SaG9uZS1BbHBlczEMMAoGA1UECgwDSVVUMQswCQYDVQQLDAJS
VDEXMBUGA1UEAwwOUEtJJlZQTl9DbGllbnQwHhcNMTgwMTE1MDkyNzE5WhcNMTkw
MTE1MDkyNzE5WjBoMQswCQYDVQQGEwJGUjEdMBsGA1UECAwUQXV2ZXJnbmUtUmhv
bmUtQWxwZXMxDzANBgNVBAcMBkFubmVjeTEMMAoGA1UECgwDSVVUMQswCQYDVQQL
DAJSVDEOMAwGA1UEAwwFdGVzdDMwWTATBgcqhkjOPQIBBggqhkjOPQMBBwNCAATz
ErnmppQmXgvK6v4jHXGCCfiAAat4AzYEBeGxnStFWtyt0cQhz8TmdFd/Xx7jygEf
i6MVosiEICc6RzdcpAkgMAoGCCqGSM49BAMDA2gAMGUCMQC+E2oW/gT1WW0O49It
nScXyNKp7r3+qGgORG4C8jwiGR/RKEo9D9WapkZhmeFtrpICMAbDOHrmg3yU5a/Q
4blePsBmg+fiD+o8c2njK6E3uQRYsoZ4F4d4Ryy3gM1Xxayw4w==
-----END CERTIFICATE-----
