Certificate:
    Data:
        Version: 1 (0x0)
        Serial Number: 4099 (0x1003)
    Signature Algorithm: ecdsa-with-SHA384
        Issuer: C=FR, ST=Auvergne-Rhone-Alpes, O=IUT, OU=RT, CN=PKI&VPN_Client
        Validity
            Not Before: Jan 15 09:33:13 2018 GMT
            Not After : Jan 15 09:33:13 2019 GMT
        Subject: C=FR, ST=Auvergne-Rhone-Alpes, L=Annecy, O=IUT, OU=RT, CN=test5
        Subject Public Key Info:
            Public Key Algorithm: id-ecPublicKey
                Public-Key: (256 bit)
                pub:
                    04:9f:d0:9a:30:77:24:46:2d:10:4a:f9:19:83:b8:
                    41:27:f0:4a:19:46:7c:27:f6:d8:6a:d2:e4:5e:88:
                    b5:ad:b1:f9:18:9b:03:67:b6:65:e9:b3:1d:c4:e2:
                    19:ce:54:c1:c4:76:bb:35:33:49:9d:1f:e1:46:4f:
                    f3:d6:b6:85:23
                ASN1 OID: prime256v1
                NIST CURVE: P-256
    Signature Algorithm: ecdsa-with-SHA384
         30:65:02:30:46:11:66:b8:68:e0:b4:fc:ba:b5:3a:49:04:0d:
         6b:b4:63:08:9b:30:36:75:ae:13:e3:66:8f:e1:f4:4a:4f:63:
         00:f0:66:e3:36:e7:be:07:ae:d6:ef:ba:23:d0:8c:c3:02:31:
         00:92:59:58:02:65:72:e1:2e:2e:8c:62:bc:97:7a:2b:a6:34:
         7c:a5:b0:df:21:7c:6e:1d:52:df:ce:4c:96:bb:de:86:a1:10:
         03:fa:44:21:03:6d:f9:10:69:ef:bf:af:dc
-----BEGIN CERTIFICATE-----
MIIB0TCCAVcCAhADMAoGCCqGSM49BAMDMGAxCzAJBgNVBAYTAkZSMR0wGwYDVQQI
DBRBdXZlcmduZS1SaG9uZS1BbHBlczEMMAoGA1UECgwDSVVUMQswCQYDVQQLDAJS
VDEXMBUGA1UEAwwOUEtJJlZQTl9DbGllbnQwHhcNMTgwMTE1MDkzMzEzWhcNMTkw
MTE1MDkzMzEzWjBoMQswCQYDVQQGEwJGUjEdMBsGA1UECAwUQXV2ZXJnbmUtUmhv
bmUtQWxwZXMxDzANBgNVBAcMBkFubmVjeTEMMAoGA1UECgwDSVVUMQswCQYDVQQL
DAJSVDEOMAwGA1UEAwwFdGVzdDUwWTATBgcqhkjOPQIBBggqhkjOPQMBBwNCAASf
0JowdyRGLRBK+RmDuEEn8EoZRnwn9thq0uReiLWtsfkYmwNntmXpsx3E4hnOVMHE
drs1M0mdH+FGT/PWtoUjMAoGCCqGSM49BAMDA2gAMGUCMEYRZrho4LT8urU6SQQN
a7RjCJswNnWuE+Nmj+H0Sk9jAPBm4zbnvgeu1u+6I9CMwwIxAJJZWAJlcuEuLoxi
vJd6K6Y0fKWw3yF8bh1S385MlrvehqEQA/pEIQNt+RBp77+v3A==
-----END CERTIFICATE-----
