Certificate:
    Data:
        Version: 3 (0x2)
        Serial Number: 2 (0x2)
    Signature Algorithm: ecdsa-with-SHA384
        Issuer: C=FR, ST=Auvergne-Rhone-Alpes, L=Annecy, O=IUT, OU=RT, CN=PKI&VPN
        Validity
            Not Before: Jan 10 10:42:28 2018 GMT
            Not After : Jan 10 10:42:28 2019 GMT
        Subject: C=FR, ST=Auvergne-Rhone-Alpes, O=IUT, OU=RT, CN=Client_CA/emailAddress=test@test.com
        Subject Public Key Info:
            Public Key Algorithm: id-ecPublicKey
                Public-Key: (384 bit)
                pub:
                    04:72:bc:4f:e2:2e:93:6b:10:e1:a6:f0:34:37:64:
                    dc:c1:bc:25:63:77:1c:88:7b:52:89:59:df:58:f6:
                    e2:62:11:90:fa:30:06:b7:12:08:0a:92:ab:b0:a7:
                    47:05:3c:85:09:c0:ce:7f:c1:3d:9c:7c:3a:0f:e4:
                    0a:ca:04:03:49:3c:d4:28:66:01:02:29:0f:16:e2:
                    42:aa:fe:85:4f:28:29:31:3c:82:81:d2:ef:92:8d:
                    f9:7e:3f:7a:c3:13:1c
                ASN1 OID: secp384r1
                NIST CURVE: P-384
        X509v3 extensions:
            Netscape Comment: 
                ROOT CA
            X509v3 Subject Key Identifier: 
                72:C3:54:80:46:7F:ED:27:25:4C:C7:F1:0F:E1:B0:81:51:6B:20:8A
            X509v3 Authority Key Identifier: 
                DirName:/C=FR/ST=Auvergne-Rhone-Alpes/L=Annecy/O=IUT/OU=RT/CN=PKI&VPN
                serial:DB:50:1A:2D:36:47:48:14

            X509v3 Basic Constraints: critical
                CA:FALSE, pathlen:0
            X509v3 Key Usage: 
                Certificate Sign, CRL Sign
            Netscape Cert Type: 
                SSL Client
    Signature Algorithm: ecdsa-with-SHA384
         30:66:02:31:00:f6:c7:6e:0c:7d:6b:75:99:2a:0f:82:fb:c5:
         ce:a0:d9:66:35:a7:4b:ae:31:8c:06:cd:5a:6a:a8:99:ea:df:
         62:3c:5e:79:01:a6:2c:e8:5c:90:fb:39:70:a1:50:dd:13:02:
         31:00:e4:3b:10:66:82:54:f7:a2:4d:81:21:ab:10:f9:fa:9f:
         ff:de:e9:70:6d:84:62:d8:0c:ed:56:7c:42:4e:28:f8:4a:ae:
         f4:49:d6:e4:de:b7:41:f1:77:6f:91:99:10:46
-----BEGIN CERTIFICATE-----
MIIDAzCCAoigAwIBAgIBAjAKBggqhkjOPQQDAzBqMQswCQYDVQQGEwJGUjEdMBsG
A1UECAwUQXV2ZXJnbmUtUmhvbmUtQWxwZXMxDzANBgNVBAcMBkFubmVjeTEMMAoG
A1UECgwDSVVUMQswCQYDVQQLDAJSVDEQMA4GA1UEAwwHUEtJJlZQTjAeFw0xODAx
MTAxMDQyMjhaFw0xOTAxMTAxMDQyMjhaMHkxCzAJBgNVBAYTAkZSMR0wGwYDVQQI
DBRBdXZlcmduZS1SaG9uZS1BbHBlczEMMAoGA1UECgwDSVVUMQswCQYDVQQLDAJS
VDESMBAGA1UEAwwJQ2xpZW50X0NBMRwwGgYJKoZIhvcNAQkBFg10ZXN0QHRlc3Qu
Y29tMHYwEAYHKoZIzj0CAQYFK4EEACIDYgAEcrxP4i6TaxDhpvA0N2TcwbwlY3cc
iHtSiVnfWPbiYhGQ+jAGtxIICpKrsKdHBTyFCcDOf8E9nHw6D+QKygQDSTzUKGYB
AikPFuJCqv6FTygpMTyCgdLvko35fj96wxMco4HyMIHvMBYGCWCGSAGG+EIBDQQJ
FgdST09UIENBMB0GA1UdDgQWBBRyw1SARn/tJyVMx/EP4bCBUWsgijCBhAYDVR0j
BH0we6FupGwwajELMAkGA1UEBhMCRlIxHTAbBgNVBAgMFEF1dmVyZ25lLVJob25l
LUFscGVzMQ8wDQYDVQQHDAZBbm5lY3kxDDAKBgNVBAoMA0lVVDELMAkGA1UECwwC
UlQxEDAOBgNVBAMMB1BLSSZWUE6CCQDbUBotNkdIFDAPBgNVHRMBAf8EBTADAgEA
MAsGA1UdDwQEAwIBBjARBglghkgBhvhCAQEEBAMCB4AwCgYIKoZIzj0EAwMDaQAw
ZgIxAPbHbgx9a3WZKg+C+8XOoNlmNadLrjGMBs1aaqiZ6t9iPF55AaYs6FyQ+zlw
oVDdEwIxAOQ7EGaCVPeiTYEhqxD5+p//3ulwbYRi2AztVnxCTij4Sq70Sdbk3rdB
8XdvkZkQRg==
-----END CERTIFICATE-----
